; Function Attrs: nounwind uwtable
define range(i32 -1, 1) i32 @H5P__add_prop(ptr noundef %0, ptr noundef %1) local_unnamed_addr #0 {
  %3 = load i8, ptr @H5P_init_g, align 1, !tbaa !3, !range !7, !noundef !8
  %4 = trunc nuw i8 %3 to i1
  %5 = load i8, ptr @H5_libterm_g, align 1, !range !7
  %6 = trunc nuw i8 %5 to i1
  %7 = xor i1 %6, true
  %8 = select i1 %4, i1 true, i1 %7
  br i1 %8, label %9, label %17, !prof !9

9:                                                ; preds = %2
  %10 = load ptr, ptr %1, align 8, !tbaa !61
  %11 = tail call i32 @H5SL_insert(ptr noundef %0, ptr noundef nonnull %1, ptr noundef %10) #14
  %12 = icmp slt i32 %11, 0
  br i1 %12, label %13, label %17

13:                                               ; preds = %9
  %14 = load i64, ptr @H5E_PLIST_g, align 8, !tbaa !10
  %15 = load i64, ptr @H5E_CANTINSERT_g, align 8, !tbaa !10
  %16 = tail call i32 (ptr, ptr, i32, i64, i64, ptr, ...) @H5E_printf_stack(ptr noundef nonnull @.str.7, ptr noundef nonnull @__func__.H5P__add_prop, i32 noundef 1386, i64 noundef %14, i64 noundef %15, ptr noundef nonnull @.str.32) #14
  br label %17

17:                                               ; preds = %13, %9, %2
  %.0 = phi i32 [ -1, %13 ], [ 0, %9 ], [ 0, %2 ]
  ret i32 %.0
}